; ModuleID = '32/1988.c'
source_filename = "32/1988.c"
target datalayout = "e-m:e-p270:32:32-p271:32:32-p272:64:64-i64:64-f80:128-n8:16:32:64-S128"
target triple = "x86_64-pc-linux-gnu"

@.str = private unnamed_addr constant [4 x i8] c"%d\0A\00", align 1
@.str.1 = private unnamed_addr constant [3 x i8] c"%s\00", align 1
@.str.2 = private unnamed_addr constant [3 x i8] c"%d\00", align 1
@.str.3 = private unnamed_addr constant [2 x i8] c"\0A\00", align 1

; Function Attrs: noinline nounwind uwtable
define dso_local i32 @main(i32 %0, i8** %1) #0 {
  %3 = alloca i32, align 4
  %4 = alloca i32, align 4
  %5 = alloca i8**, align 8
  %6 = alloca i32, align 4
  %7 = alloca i32, align 4
  %8 = alloca i32, align 4
  %9 = alloca i32, align 4
  %10 = alloca [105 x i8], align 16
  %11 = alloca [105 x i8], align 16
  %12 = alloca [105 x i32], align 16
  %13 = alloca [105 x i32], align 16
  %14 = alloca [105 x i32], align 16
  %15 = alloca i32, align 4
  %16 = alloca i32, align 4
  store i32 0, i32* %3, align 4
  store i32 %0, i32* %4, align 4
  store i8** %1, i8*** %5, align 8
  %17 = call i32 (i8*, ...) @__isoc99_scanf(i8* getelementptr inbounds ([4 x i8], [4 x i8]* @.str, i64 0, i64 0), i32* %6)
  store i32 0, i32* %7, align 4
  br label %18

18:                                               ; preds = %159, %2
  %19 = load i32, i32* %7, align 4
  %20 = load i32, i32* %6, align 4
  %21 = icmp slt i32 %19, %20
  br i1 %21, label %22, label %162

22:                                               ; preds = %18
  %23 = bitcast [105 x i32]* %12 to i8*
  call void @llvm.memset.p0i8.i64(i8* align 16 %23, i8 0, i64 420, i1 false)
  %24 = bitcast [105 x i32]* %13 to i8*
  call void @llvm.memset.p0i8.i64(i8* align 16 %24, i8 0, i64 420, i1 false)
  %25 = bitcast [105 x i32]* %14 to i8*
  call void @llvm.memset.p0i8.i64(i8* align 16 %25, i8 0, i64 420, i1 false)
  %26 = getelementptr inbounds [105 x i8], [105 x i8]* %10, i64 0, i64 0
  %27 = call i32 (i8*, ...) @__isoc99_scanf(i8* getelementptr inbounds ([3 x i8], [3 x i8]* @.str.1, i64 0, i64 0), i8* %26)
  %28 = getelementptr inbounds [105 x i8], [105 x i8]* %11, i64 0, i64 0
  %29 = call i32 (i8*, ...) @__isoc99_scanf(i8* getelementptr inbounds ([3 x i8], [3 x i8]* @.str.1, i64 0, i64 0), i8* %28)
  %30 = getelementptr inbounds [105 x i8], [105 x i8]* %10, i64 0, i64 0
  %31 = call i64 @strlen(i8* %30) #4
  %32 = trunc i64 %31 to i32
  store i32 %32, i32* %15, align 4
  %33 = getelementptr inbounds [105 x i8], [105 x i8]* %11, i64 0, i64 0
  %34 = call i64 @strlen(i8* %33) #4
  %35 = trunc i64 %34 to i32
  store i32 %35, i32* %16, align 4
  store i32 0, i32* %8, align 4
  br label %36

36:                                               ; preds = %50, %22
  %37 = load i32, i32* %8, align 4
  %38 = load i32, i32* %15, align 4
  %39 = icmp slt i32 %37, %38
  br i1 %39, label %40, label %53

40:                                               ; preds = %36
  %41 = load i32, i32* %8, align 4
  %42 = sext i32 %41 to i64
  %43 = getelementptr inbounds [105 x i8], [105 x i8]* %10, i64 0, i64 %42
  %44 = load i8, i8* %43, align 1
  %45 = sext i8 %44 to i32
  %46 = sub nsw i32 %45, 48
  %47 = load i32, i32* %8, align 4
  %48 = sext i32 %47 to i64
  %49 = getelementptr inbounds [105 x i32], [105 x i32]* %12, i64 0, i64 %48
  store i32 %46, i32* %49, align 4
  br label %50

50:                                               ; preds = %40
  %51 = load i32, i32* %8, align 4
  %52 = add nsw i32 %51, 1
  store i32 %52, i32* %8, align 4
  br label %36

53:                                               ; preds = %36
  %54 = load i32, i32* %16, align 4
  %55 = sub nsw i32 %54, 1
  store i32 %55, i32* %8, align 4
  br label %56

56:                                               ; preds = %73, %53
  %57 = load i32, i32* %8, align 4
  %58 = icmp sge i32 %57, 0
  br i1 %58, label %59, label %76

59:                                               ; preds = %56
  %60 = load i32, i32* %8, align 4
  %61 = sext i32 %60 to i64
  %62 = getelementptr inbounds [105 x i8], [105 x i8]* %11, i64 0, i64 %61
  %63 = load i8, i8* %62, align 1
  %64 = sext i8 %63 to i32
  %65 = sub nsw i32 %64, 48
  %66 = load i32, i32* %8, align 4
  %67 = load i32, i32* %15, align 4
  %68 = add nsw i32 %66, %67
  %69 = load i32, i32* %16, align 4
  %70 = sub nsw i32 %68, %69
  %71 = sext i32 %70 to i64
  %72 = getelementptr inbounds [105 x i32], [105 x i32]* %13, i64 0, i64 %71
  store i32 %65, i32* %72, align 4
  br label %73

73:                                               ; preds = %59
  %74 = load i32, i32* %8, align 4
  %75 = add nsw i32 %74, -1
  store i32 %75, i32* %8, align 4
  br label %56

76:                                               ; preds = %56
  store i32 0, i32* %8, align 4
  br label %77

77:                                               ; preds = %87, %76
  %78 = load i32, i32* %8, align 4
  %79 = load i32, i32* %15, align 4
  %80 = load i32, i32* %16, align 4
  %81 = sub nsw i32 %79, %80
  %82 = icmp slt i32 %78, %81
  br i1 %82, label %83, label %90

83:                                               ; preds = %77
  %84 = load i32, i32* %8, align 4
  %85 = sext i32 %84 to i64
  %86 = getelementptr inbounds [105 x i32], [105 x i32]* %13, i64 0, i64 %85
  store i32 0, i32* %86, align 4
  br label %87

87:                                               ; preds = %83
  %88 = load i32, i32* %8, align 4
  %89 = add nsw i32 %88, 1
  store i32 %89, i32* %8, align 4
  br label %77

90:                                               ; preds = %77
  %91 = load i32, i32* %15, align 4
  %92 = sub nsw i32 %91, 1
  store i32 %92, i32* %8, align 4
  br label %93

93:                                               ; preds = %140, %90
  %94 = load i32, i32* %8, align 4
  %95 = icmp sge i32 %94, 0
  br i1 %95, label %96, label %143

96:                                               ; preds = %93
  %97 = load i32, i32* %8, align 4
  %98 = sext i32 %97 to i64
  %99 = getelementptr inbounds [105 x i32], [105 x i32]* %12, i64 0, i64 %98
  %100 = load i32, i32* %99, align 4
  %101 = load i32, i32* %8, align 4
  %102 = sext i32 %101 to i64
  %103 = getelementptr inbounds [105 x i32], [105 x i32]* %13, i64 0, i64 %102
  %104 = load i32, i32* %103, align 4
  %105 = icmp slt i32 %100, %104
  br i1 %105, label %106, label %126

106:                                              ; preds = %96
  %107 = load i32, i32* %8, align 4
  %108 = sext i32 %107 to i64
  %109 = getelementptr inbounds [105 x i32], [105 x i32]* %12, i64 0, i64 %108
  %110 = load i32, i32* %109, align 4
  %111 = add nsw i32 10, %110
  %112 = load i32, i32* %8, align 4
  %113 = sext i32 %112 to i64
  %114 = getelementptr inbounds [105 x i32], [105 x i32]* %13, i64 0, i64 %113
  %115 = load i32, i32* %114, align 4
  %116 = sub nsw i32 %111, %115
  %117 = load i32, i32* %8, align 4
  %118 = sext i32 %117 to i64
  %119 = getelementptr inbounds [105 x i32], [105 x i32]* %14, i64 0, i64 %118
  store i32 %116, i32* %119, align 4
  %120 = load i32, i32* %8, align 4
  %121 = sub nsw i32 %120, 1
  %122 = sext i32 %121 to i64
  %123 = getelementptr inbounds [105 x i32], [105 x i32]* %12, i64 0, i64 %122
  %124 = load i32, i32* %123, align 4
  %125 = add nsw i32 %124, -1
  store i32 %125, i32* %123, align 4
  br label %139

126:                                              ; preds = %96
  %127 = load i32, i32* %8, align 4
  %128 = sext i32 %127 to i64
  %129 = getelementptr inbounds [105 x i32], [105 x i32]* %12, i64 0, i64 %128
  %130 = load i32, i32* %129, align 4
  %131 = load i32, i32* %8, align 4
  %132 = sext i32 %131 to i64
  %133 = getelementptr inbounds [105 x i32], [105 x i32]* %13, i64 0, i64 %132
  %134 = load i32, i32* %133, align 4
  %135 = sub nsw i32 %130, %134
  %136 = load i32, i32* %8, align 4
  %137 = sext i32 %136 to i64
  %138 = getelementptr inbounds [105 x i32], [105 x i32]* %14, i64 0, i64 %137
  store i32 %135, i32* %138, align 4
  br label %139

139:                                              ; preds = %126, %106
  br label %140

140:                                              ; preds = %139
  %141 = load i32, i32* %8, align 4
  %142 = add nsw i32 %141, -1
  store i32 %142, i32* %8, align 4
  br label %93

143:                                              ; preds = %93
  store i32 0, i32* %8, align 4
  br label %144

144:                                              ; preds = %154, %143
  %145 = load i32, i32* %8, align 4
  %146 = load i32, i32* %15, align 4
  %147 = icmp slt i32 %145, %146
  br i1 %147, label %148, label %157

148:                                              ; preds = %144
  %149 = load i32, i32* %8, align 4
  %150 = sext i32 %149 to i64
  %151 = getelementptr inbounds [105 x i32], [105 x i32]* %14, i64 0, i64 %150
  %152 = load i32, i32* %151, align 4
  %153 = call i32 (i8*, ...) @printf(i8* getelementptr inbounds ([3 x i8], [3 x i8]* @.str.2, i64 0, i64 0), i32 %152)
  br label %154

154:                                              ; preds = %148
  %155 = load i32, i32* %8, align 4
  %156 = add nsw i32 %155, 1
  store i32 %156, i32* %8, align 4
  br label %144

157:                                              ; preds = %144
  %158 = call i32 (i8*, ...) @printf(i8* getelementptr inbounds ([2 x i8], [2 x i8]* @.str.3, i64 0, i64 0))
  br label %159

159:                                              ; preds = %157
  %160 = load i32, i32* %7, align 4
  %161 = add nsw i32 %160, 1
  store i32 %161, i32* %7, align 4
  br label %18

162:                                              ; preds = %18
  ret i32 0
}

declare dso_local i32 @__isoc99_scanf(i8*, ...) #1

; Function Attrs: argmemonly nounwind willreturn
declare void @llvm.memset.p0i8.i64(i8* nocapture writeonly, i8, i64, i1 immarg) #2

; Function Attrs: nounwind readonly
declare dso_local i64 @strlen(i8*) #3

declare dso_local i32 @printf(i8*, ...) #1


!llvm.module.flags = !{!0}
!llvm.ident = !{!1}

!0 = !{i32 1, !"wchar_size", i32 4}
!1 = !{!"clang version 10.0.0-4ubuntu1 "}
